target datalayout = "e-m:e-p270:32:32-p271:32:32-p272:64:64-i64:64-i128:128-f80:128-n8:16:32:64-S128"
target triple = "x86_64-pc-linux-gnu"

%struct._wmem_array_t = type { ptr, ptr, i64, i32, i32, i8 }

; Function Attrs: null_pointer_is_valid sspstrong uwtable
define void @wmem_array_grow(ptr noundef %0, i32 noundef %1) #0 {
  %3 = alloca ptr, align 8
  %4 = alloca i32, align 4
  %5 = alloca i32, align 4
  %6 = alloca i32, align 4
  %7 = alloca i32, align 4
  store ptr %0, ptr %3, align 8
  store i32 %1, ptr %4, align 4
  call void @llvm.lifetime.start.p0(i64 4, ptr %5) #11
  call void @llvm.lifetime.start.p0(i64 4, ptr %6) #11
  %8 = load ptr, ptr %3, align 8
  %9 = getelementptr inbounds nuw %struct._wmem_array_t, ptr %8, i32 0, i32 4
  %10 = load i32, ptr %9, align 4
  store i32 %10, ptr %5, align 4
  %11 = load ptr, ptr %3, align 8
  %12 = getelementptr inbounds nuw %struct._wmem_array_t, ptr %11, i32 0, i32 3
  %13 = load i32, ptr %12, align 8
  %14 = load i32, ptr %4, align 4
  %15 = add i32 %13, %14
  store i32 %15, ptr %6, align 4
  br label %16

16:                                               ; preds = %20, %2
  %17 = load i32, ptr %5, align 4
  %18 = load i32, ptr %6, align 4
  %19 = icmp ult i32 %17, %18
  br i1 %19, label %20, label %23

20:                                               ; preds = %16
  %21 = load i32, ptr %5, align 4
  %22 = mul i32 %21, 2
  store i32 %22, ptr %5, align 4
  br label %16, !llvm.loop !6

23:                                               ; preds = %16
  %24 = load i32, ptr %5, align 4
  %25 = load ptr, ptr %3, align 8
  %26 = getelementptr inbounds nuw %struct._wmem_array_t, ptr %25, i32 0, i32 4
  %27 = load i32, ptr %26, align 4
  %28 = icmp eq i32 %24, %27
  br i1 %28, label %29, label %30

29:                                               ; preds = %23
  store i32 1, ptr %7, align 4
  br label %49

30:                                               ; preds = %23
  %31 = load ptr, ptr %3, align 8
  %32 = getelementptr inbounds nuw %struct._wmem_array_t, ptr %31, i32 0, i32 0
  %33 = load ptr, ptr %32, align 8
  %34 = load ptr, ptr %3, align 8
  %35 = getelementptr inbounds nuw %struct._wmem_array_t, ptr %34, i32 0, i32 1
  %36 = load ptr, ptr %35, align 8
  %37 = load i32, ptr %5, align 4
  %38 = zext i32 %37 to i64
  %39 = load ptr, ptr %3, align 8
  %40 = getelementptr inbounds nuw %struct._wmem_array_t, ptr %39, i32 0, i32 2
  %41 = load i64, ptr %40, align 8
  %42 = mul i64 %38, %41
  %43 = call ptr @wmem_realloc(ptr noundef %33, ptr noundef %36, i64 noundef %42) #13
  %44 = load ptr, ptr %3, align 8
  %45 = getelementptr inbounds nuw %struct._wmem_array_t, ptr %44, i32 0, i32 1
  store ptr %43, ptr %45, align 8
  %46 = load i32, ptr %5, align 4
  %47 = load ptr, ptr %3, align 8
  %48 = getelementptr inbounds nuw %struct._wmem_array_t, ptr %47, i32 0, i32 4
  store i32 %46, ptr %48, align 4
  store i32 0, ptr %7, align 4
  br label %49

49:                                               ; preds = %30, %29
  call void @llvm.lifetime.end.p0(i64 4, ptr %6) #11
  call void @llvm.lifetime.end.p0(i64 4, ptr %5) #11
  %50 = load i32, ptr %7, align 4
  switch i32 %50, label %52 [
    i32 0, label %51
    i32 1, label %51
  ]

51:                                               ; preds = %49, %49
  ret void

52:                                               ; preds = %49
  unreachable
}