; Function Attrs: null_pointer_is_valid sspstrong uwtable
define void @wmem_array_grow(ptr noundef captures(none) %0, i32 noundef %1) local_unnamed_addr #0 {
  %3 = getelementptr inbounds nuw i8, ptr %0, i64 28
  %4 = load i32, ptr %3, align 4
  %5 = getelementptr inbounds nuw i8, ptr %0, i64 24
  %6 = load i32, ptr %5, align 8
  %7 = add i32 %6, %1
  br label %8

8:                                                ; preds = %8, %2
  %.0 = phi i32 [ %4, %2 ], [ %10, %8 ]
  %9 = icmp ult i32 %.0, %7
  %10 = shl i32 %.0, 1
  br i1 %9, label %8, label %11, !llvm.loop !6

11:                                               ; preds = %8
  %12 = icmp eq i32 %.0, %4
  br i1 %12, label %22, label %13

13:                                               ; preds = %11
  %14 = load ptr, ptr %0, align 8
  %15 = getelementptr inbounds nuw i8, ptr %0, i64 8
  %16 = load ptr, ptr %15, align 8
  %17 = zext i32 %.0 to i64
  %18 = getelementptr inbounds nuw i8, ptr %0, i64 16
  %19 = load i64, ptr %18, align 8
  %20 = mul i64 %19, %17
  %21 = tail call ptr @wmem_realloc(ptr noundef %14, ptr noundef %16, i64 noundef %20) #13
  store ptr %21, ptr %15, align 8
  store i32 %.0, ptr %3, align 4
  br label %22

22:                                               ; preds = %11, %13
  ret void
}